; Function Attrs: nounwind sspstrong uwtable
define internal fastcc range(i32 0, 2) i32 @inspect_ipv6_multicast_if(i64 noundef %0, i64 noundef %1) unnamed_addr #0 {
  %3 = alloca [16 x i8], align 16
  %4 = alloca [48 x i8], align 16
  %5 = inttoptr i64 %0 to ptr
  %6 = getelementptr inbounds nuw i8, ptr %5, i64 16
  %7 = load i64, ptr %6, align 8, !tbaa !15
  %8 = icmp eq i64 %7, 4
  br i1 %8, label %9, label %21

9:                                                ; preds = %2
  call void @llvm.lifetime.start.p0(i64 48, ptr nonnull %4) #6
  %10 = load i64, ptr %5, align 8, !tbaa !13, !noalias !116
  %11 = and i64 %10, 8192
  %.not.i.i = icmp eq i64 %11, 0
  %12 = getelementptr inbounds nuw i8, ptr %5, i64 24
  br i1 %.not.i.i, label %RSTRING_PTR.exit, label %13

13:                                               ; preds = %9
  %.sroa.2.0.copyload.i = load ptr, ptr %12, align 8
  br label %RSTRING_PTR.exit

RSTRING_PTR.exit:                                 ; preds = %9, %13
  %.sroa.2.0.i = phi ptr [ %.sroa.2.0.copyload.i, %13 ], [ %12, %9 ]
  %14 = load i32, ptr %.sroa.2.0.i, align 1
  call void @llvm.lifetime.start.p0(i64 16, ptr nonnull %3) #6
  %15 = call ptr @if_indextoname(i32 noundef %14, ptr noundef nonnull %3) #6
  %.not.i = icmp eq ptr %15, null
  br i1 %.not.i, label %18, label %16

16:                                               ; preds = %RSTRING_PTR.exit
  %17 = call i32 (ptr, i64, ptr, ...) @ruby_snprintf(ptr noundef nonnull %4, i64 noundef 48, ptr noundef nonnull @.str.38, ptr noundef nonnull @.str.25, ptr noundef nonnull %3) #6
  br label %rb_if_indextoname.exit

18:                                               ; preds = %RSTRING_PTR.exit
  %19 = call i32 (ptr, i64, ptr, ...) @ruby_snprintf(ptr noundef nonnull %4, i64 noundef 48, ptr noundef nonnull @.str.39, ptr noundef nonnull @.str.25, i32 noundef %14) #6
  br label %rb_if_indextoname.exit

rb_if_indextoname.exit:                           ; preds = %16, %18
  call void @llvm.lifetime.end.p0(i64 16, ptr nonnull %3) #6
  %20 = call i64 @rb_str_cat_cstr(i64 noundef %1, ptr noundef nonnull %4) #6
  call void @llvm.lifetime.end.p0(i64 48, ptr nonnull %4) #6
  br label %21

21:                                               ; preds = %2, %rb_if_indextoname.exit
  %.0 = phi i32 [ 1, %rb_if_indextoname.exit ], [ 0, %2 ]
  ret i32 %.0
}